target datalayout = "e-m:e-p270:32:32-p271:32:32-p272:64:64-i64:64-i128:128-f80:128-n8:16:32:64-S128"
target triple = "x86_64-unknown-linux-gnu"

%struct.ChardevBackendInfoList = type { ptr, ptr }

; Function Attrs: nounwind sspstrong uwtable
define dso_local zeroext i1 @visit_type_ChardevBackendInfoList(ptr noundef %v, ptr noundef %name, ptr noundef %obj, ptr noundef %errp) #0 {
entry:
  %retval = alloca i1, align 1
  %v.addr = alloca ptr, align 8
  %name.addr = alloca ptr, align 8
  %obj.addr = alloca ptr, align 8
  %errp.addr = alloca ptr, align 8
  %ok = alloca i8, align 1
  %tail = alloca ptr, align 8
  %size = alloca i64, align 8
  store ptr %v, ptr %v.addr, align 8
  store ptr %name, ptr %name.addr, align 8
  store ptr %obj, ptr %obj.addr, align 8
  store ptr %errp, ptr %errp.addr, align 8
  store i8 0, ptr %ok, align 1
  store i64 16, ptr %size, align 8
  %0 = load ptr, ptr %v.addr, align 8
  %1 = load ptr, ptr %name.addr, align 8
  %2 = load ptr, ptr %obj.addr, align 8
  %3 = load i64, ptr %size, align 8
  %4 = load ptr, ptr %errp.addr, align 8
  %call = call zeroext i1 @visit_start_list(ptr noundef %0, ptr noundef %1, ptr noundef %2, i64 noundef %3, ptr noundef %4)
  br i1 %call, label %if.end, label %if.then

if.then:                                          ; preds = %entry
  store i1 false, ptr %retval, align 1
  br label %return

if.end:                                           ; preds = %entry
  %5 = load ptr, ptr %obj.addr, align 8
  %6 = load ptr, ptr %5, align 8
  store ptr %6, ptr %tail, align 8
  br label %for.cond

for.cond:                                         ; preds = %for.inc, %if.end
  %7 = load ptr, ptr %tail, align 8
  %tobool = icmp ne ptr %7, null
  br i1 %tobool, label %for.body, label %for.end

for.body:                                         ; preds = %for.cond
  %8 = load ptr, ptr %v.addr, align 8
  %9 = load ptr, ptr %tail, align 8
  %value = getelementptr inbounds %struct.ChardevBackendInfoList, ptr %9, i32 0, i32 1
  %10 = load ptr, ptr %errp.addr, align 8
  %call1 = call zeroext i1 @visit_type_ChardevBackendInfo(ptr noundef %8, ptr noundef null, ptr noundef %value, ptr noundef %10)
  br i1 %call1, label %if.end3, label %if.then2

if.then2:                                         ; preds = %for.body
  br label %out_obj

if.end3:                                          ; preds = %for.body
  br label %for.inc

for.inc:                                          ; preds = %if.end3
  %11 = load ptr, ptr %v.addr, align 8
  %12 = load ptr, ptr %tail, align 8
  %13 = load i64, ptr %size, align 8
  %call4 = call ptr @visit_next_list(ptr noundef %11, ptr noundef %12, i64 noundef %13)
  store ptr %call4, ptr %tail, align 8
  br label %for.cond, !llvm.loop !7

for.end:                                          ; preds = %for.cond
  %14 = load ptr, ptr %v.addr, align 8
  %15 = load ptr, ptr %errp.addr, align 8
  %call5 = call zeroext i1 @visit_check_list(ptr noundef %14, ptr noundef %15)
  %frombool = zext i1 %call5 to i8
  store i8 %frombool, ptr %ok, align 1
  br label %out_obj

out_obj:                                          ; preds = %for.end, %if.then2
  %16 = load ptr, ptr %v.addr, align 8
  %17 = load ptr, ptr %obj.addr, align 8
  call void @visit_end_list(ptr noundef %16, ptr noundef %17)
  %18 = load i8, ptr %ok, align 1
  %tobool6 = trunc i8 %18 to i1
  br i1 %tobool6, label %if.end9, label %land.lhs.true

land.lhs.true:                                    ; preds = %out_obj
  %19 = load ptr, ptr %v.addr, align 8
  %call7 = call zeroext i1 @visit_is_input(ptr noundef %19)
  br i1 %call7, label %if.then8, label %if.end9

if.then8:                                         ; preds = %land.lhs.true
  %20 = load ptr, ptr %obj.addr, align 8
  %21 = load ptr, ptr %20, align 8
  call void @qapi_free_ChardevBackendInfoList(ptr noundef %21)
  %22 = load ptr, ptr %obj.addr, align 8
  store ptr null, ptr %22, align 8
  br label %if.end9

if.end9:                                          ; preds = %if.then8, %land.lhs.true, %out_obj
  %23 = load i8, ptr %ok, align 1
  %tobool10 = trunc i8 %23 to i1
  store i1 %tobool10, ptr %retval, align 1
  br label %return

return:                                           ; preds = %if.end9, %if.then
  %24 = load i1, ptr %retval, align 1
  ret i1 %24
}