; Function Attrs: nounwind sspstrong uwtable
define dso_local noundef zeroext i1 @visit_type_ChardevBackendInfoList(ptr noundef %v, ptr noundef %name, ptr noundef %obj, ptr noundef %errp) local_unnamed_addr #0 {
entry:
  %call = tail call zeroext i1 @visit_start_list(ptr noundef %v, ptr noundef %name, ptr noundef %obj, i64 noundef 16, ptr noundef %errp) #5
  br i1 %call, label %if.end, label %return

if.end:                                           ; preds = %entry
  %0 = load ptr, ptr %obj, align 8
  %tobool.not18 = icmp eq ptr %0, null
  br i1 %tobool.not18, label %out_obj, label %for.body

for.body:                                         ; preds = %if.end, %for.inc
  %tail.019 = phi ptr [ %call4, %for.inc ], [ %0, %if.end ]
  %value = getelementptr inbounds nuw i8, ptr %tail.019, i64 8
  %call1 = tail call zeroext i1 @visit_type_ChardevBackendInfo(ptr noundef %v, ptr noundef null, ptr noundef nonnull %value, ptr noundef %errp)
  br i1 %call1, label %for.inc, label %out_obj.thread

out_obj.thread:                                   ; preds = %for.body
  tail call void @visit_end_list(ptr noundef %v, ptr noundef nonnull %obj) #5
  br label %land.lhs.true

for.inc:                                          ; preds = %for.body
  %call4 = tail call ptr @visit_next_list(ptr noundef %v, ptr noundef nonnull %tail.019, i64 noundef 16) #5
  %tobool.not = icmp eq ptr %call4, null
  br i1 %tobool.not, label %out_obj, label %for.body, !llvm.loop !7

out_obj:                                          ; preds = %for.inc, %if.end
  %call5 = tail call zeroext i1 @visit_check_list(ptr noundef %v, ptr noundef %errp) #5
  tail call void @visit_end_list(ptr noundef %v, ptr noundef nonnull %obj) #5
  br i1 %call5, label %return, label %land.lhs.true

land.lhs.true:                                    ; preds = %out_obj.thread, %out_obj
  %call7 = tail call zeroext i1 @visit_is_input(ptr noundef %v) #5
  br i1 %call7, label %if.then8, label %return

if.then8:                                         ; preds = %land.lhs.true
  %1 = load ptr, ptr %obj, align 8
  tail call void @qapi_free_ChardevBackendInfoList(ptr noundef %1) #5
  store ptr null, ptr %obj, align 8
  br label %return

return:                                           ; preds = %out_obj, %land.lhs.true, %if.then8, %entry
  %retval.0 = phi i1 [ false, %entry ], [ false, %if.then8 ], [ false, %land.lhs.true ], [ true, %out_obj ]
  ret i1 %retval.0
}